-----BEGIN CERTIFICATE REQUEST-----
MIIBmDCCAQECAQAwWDELMAkGA1UEBhMCRlIxDzANBgNVBAgTBkNlbnRyZTEQMA4G
A1UEBxMHT3JsZWFuczEOMAwGA1UEChMFUGVyZHUxFjAUBgNVBAMTDXd3dy5wZXJk
dS5jb20wgZ8wDQYJKoZIhvcNAQEBBQADgY0AMIGJAoGBALkUNvQMSc6ILp5lt25m
iu1ieL/nElnEOOrLEQ88vf/+74LdGoxnDNPlUG4mtE117VqLAn2knORRUeh50Snl
whKsTlB3X8kSsvWsD32793tz16MIph+KYodX2e5gjdVQOC+td4Iy0bBhUYCZ4UWo
IJX3KcjRGyPAJji6e+ZU8PKdAgMBAAGgADANBgkqhkiG9w0BAQUFAAOBgQA9my2y
QYytwSKd8tkGOXwCGwEpoArvQZ15wU0w35Frux0nC4zlRMevn2aIRc1juzhcAORG
2QdRp3D2bofCKAuIFJA8+SdJ3FaflrnPj5i3lRxX2kqGwidIZE8OucD9hFcaVyjs
fry721l5Zy1/k5xoOsn6oSYPdMTAh4SDzPiQNQ==
-----END CERTIFICATE REQUEST-----
Certificate:
    Data:
        Version: 3 (0x2)
        Serial Number: 1 (0x1)
        Signature Algorithm: sha1WithRSAEncryption
        Issuer: C=FR, ST=Centre, O=Rezo2, CN=Trust Us
        Validity
            Not Before: Mar 14 23:44:03 2016 GMT
            Not After : Mar 14 23:44:03 2017 GMT
        Subject: C=FR, ST=Centre, L=Orleans, O=Perdu, CN=www.perdu.com
        Subject Public Key Info:
            Public Key Algorithm: rsaEncryption
            RSA Public Key: (1024 bit)
                Modulus (1024 bit):
                    00:b9:14:36:f4:0c:49:ce:88:2e:9e:65:b7:6e:66:
                    8a:ed:62:78:bf:e7:12:59:c4:38:ea:cb:11:0f:3c:
                    bd:ff:fe:ef:82:dd:1a:8c:67:0c:d3:e5:50:6e:26:
                    b4:4d:75:ed:5a:8b:02:7d:a4:9c:e4:51:51:e8:79:
                    d1:29:e5:c2:12:ac:4e:50:77:5f:c9:12:b2:f5:ac:
                    0f:7d:bb:f7:7b:73:d7:a3:08:a6:1f:8a:62:87:57:
                    d9:ee:60:8d:d5:50:38:2f:ad:77:82:32:d1:b0:61:
                    51:80:99:e1:45:a8:20:95:f7:29:c8:d1:1b:23:c0:
                    26:38:ba:7b:e6:54:f0:f2:9d
                Exponent: 65537 (0x10001)
        X509v3 extensions:
            X509v3 Basic Constraints: 
                CA:FALSE
            Netscape Comment: 
                OpenSSL Generated Certificate
            X509v3 Subject Key Identifier: 
                4E:72:14:46:86:A5:F1:C3:61:8F:74:A6:08:F7:E6:9C:2C:10:2E:B1
            X509v3 Authority Key Identifier: 
                keyid:1D:19:EE:D0:95:16:36:F5:72:37:1D:A4:35:44:44:42:2F:9A:81:17

    Signature Algorithm: sha1WithRSAEncryption
        2d:b5:0d:6c:c0:d9:fb:c8:ca:1c:e0:fe:86:a1:84:1a:a1:e7:
        87:ee:7a:cd:b1:4d:39:05:c5:59:4a:5b:1f:e5:4e:dc:83:fc:
        66:95:f4:37:28:c4:6a:71:c4:57:65:80:de:6b:15:65:ce:c1:
        d7:39:94:a7:cb:d2:d0:b3:41:ea:79:cb:8b:93:fb:58:8b:4c:
        b1:2b:55:38:63:71:90:c8:49:ee:99:96:fd:9c:1f:82:9b:3f:
        15:d0:56:d1:be:5d:6a:d5:b6:a3:94:f8:50:c0:2a:65:bd:e7:
        7b:ed:a5:6f:5e:d2:2e:7c:11:0e:dd:25:b5:57:06:49:27:e5:
        4e:38
-----BEGIN CERTIFICATE-----
MIICijCCAfOgAwIBAgIBATANBgkqhkiG9w0BAQUFADBBMQswCQYDVQQGEwJGUjEP
MA0GA1UECBMGQ2VudHJlMQ4wDAYDVQQKEwVSZXpvMjERMA8GA1UEAxMIVHJ1c3Qg
VXMwHhcNMTYwMzE0MjM0NDAzWhcNMTcwMzE0MjM0NDAzWjBYMQswCQYDVQQGEwJG
UjEPMA0GA1UECBMGQ2VudHJlMRAwDgYDVQQHEwdPcmxlYW5zMQ4wDAYDVQQKEwVQ
ZXJkdTEWMBQGA1UEAxMNd3d3LnBlcmR1LmNvbTCBnzANBgkqhkiG9w0BAQEFAAOB
jQAwgYkCgYEAuRQ29AxJzogunmW3bmaK7WJ4v+cSWcQ46ssRDzy9//7vgt0ajGcM
0+VQbia0TXXtWosCfaSc5FFR6HnRKeXCEqxOUHdfyRKy9awPfbv3e3PXowimH4pi
h1fZ7mCN1VA4L613gjLRsGFRgJnhRagglfcpyNEbI8AmOLp75lTw8p0CAwEAAaN7
MHkwCQYDVR0TBAIwADAsBglghkgBhvhCAQ0EHxYdT3BlblNTTCBHZW5lcmF0ZWQg
Q2VydGlmaWNhdGUwHQYDVR0OBBYEFE5yFEaGpfHDYY90pgj35pwsEC6xMB8GA1Ud
IwQYMBaAFB0Z7tCVFjb1cjcdpDVEREIvmoEXMA0GCSqGSIb3DQEBBQUAA4GBAC21
DWzA2fvIyhzg/oahhBqh54fues2xTTkFxVlKWx/lTtyD/GaV9DcoxGpxxFdlgN5r
FWXOwdc5lKfL0tCzQep5y4uT+1iLTLErVThjcZDISe6Zlv2cH4KbPxXQVtG+XWrV
tqOU+FDAKmW953vtpW9e0i58EQ7dJbVXBkkn5U44
-----END CERTIFICATE-----
