Certificate:
    Data:
        Version: 3 (0x2)
        Serial Number: 0 (0x0)
        Signature Algorithm: sha1WithRSAEncryption
        Issuer: C=FR, ST=Centre, O=Rezo2, CN=Trust Us
        Validity
            Not Before: Mar 14 23:43:33 2016 GMT
            Not After : Mar 14 23:43:33 2019 GMT
        Subject: C=FR, ST=Centre, O=Rezo2, CN=Trust Us
        Subject Public Key Info:
            Public Key Algorithm: rsaEncryption
            RSA Public Key: (1024 bit)
                Modulus (1024 bit):
                    00:b8:38:56:fe:2a:4e:9d:5b:35:bc:0f:1e:d8:39:
                    22:88:a5:10:2a:1a:3e:8d:93:19:ff:c9:e8:49:6c:
                    83:d8:6d:87:68:79:10:32:d3:80:4f:ad:87:5b:bd:
                    b3:aa:32:eb:1b:e7:eb:c4:72:87:1e:6f:1a:3f:fe:
                    d3:e9:74:c0:30:90:7a:20:13:42:0f:b4:d1:ac:9e:
                    08:89:d1:5e:a1:ad:3d:9d:94:77:2f:b2:12:41:7c:
                    90:7f:1e:8c:5b:f4:16:c8:4c:c0:42:12:3d:bc:a7:
                    7f:30:fc:50:88:75:cd:c5:35:51:df:37:d5:b4:d6:
                    9d:b1:ed:3c:0e:52:6d:31:33
                Exponent: 65537 (0x10001)
        X509v3 extensions:
            X509v3 Subject Key Identifier: 
                1D:19:EE:D0:95:16:36:F5:72:37:1D:A4:35:44:44:42:2F:9A:81:17
            X509v3 Authority Key Identifier: 
                keyid:1D:19:EE:D0:95:16:36:F5:72:37:1D:A4:35:44:44:42:2F:9A:81:17
                DirName:/C=FR/ST=Centre/O=Rezo2/CN=Trust Us
                serial:00

            X509v3 Basic Constraints: 
                CA:TRUE
    Signature Algorithm: sha1WithRSAEncryption
        7a:3e:23:ea:3e:14:b7:07:bc:a5:61:3f:90:72:1e:4a:de:10:
        c1:72:44:b8:54:2c:71:d6:db:22:f6:bb:91:9c:dd:8e:88:75:
        0a:0f:a7:59:d6:b3:0c:a1:0a:dc:e5:f9:87:31:10:8b:2e:84:
        89:c0:df:54:45:99:39:c4:dd:51:5e:f3:05:6d:91:b5:a9:1e:
        52:1e:ac:f7:8e:f1:8e:43:0f:39:fb:33:e8:94:e8:f3:8b:98:
        80:01:87:8b:63:a9:68:1c:c0:50:43:cf:cd:37:41:c3:e4:26:
        ea:b9:0f:f2:98:94:0b:3f:ae:66:6d:d5:82:8d:18:95:c0:47:
        04:c5
-----BEGIN CERTIFICATE-----
MIIClDCCAf2gAwIBAgIBADANBgkqhkiG9w0BAQUFADBBMQswCQYDVQQGEwJGUjEP
MA0GA1UECBMGQ2VudHJlMQ4wDAYDVQQKEwVSZXpvMjERMA8GA1UEAxMIVHJ1c3Qg
VXMwHhcNMTYwMzE0MjM0MzMzWhcNMTkwMzE0MjM0MzMzWjBBMQswCQYDVQQGEwJG
UjEPMA0GA1UECBMGQ2VudHJlMQ4wDAYDVQQKEwVSZXpvMjERMA8GA1UEAxMIVHJ1
c3QgVXMwgZ8wDQYJKoZIhvcNAQEBBQADgY0AMIGJAoGBALg4Vv4qTp1bNbwPHtg5
IoilECoaPo2TGf/J6Elsg9hth2h5EDLTgE+th1u9s6oy6xvn68Ryhx5vGj/+0+l0
wDCQeiATQg+00ayeCInRXqGtPZ2Udy+yEkF8kH8ejFv0FshMwEISPbynfzD8UIh1
zcU1Ud831bTWnbHtPA5SbTEzAgMBAAGjgZswgZgwHQYDVR0OBBYEFB0Z7tCVFjb1
cjcdpDVEREIvmoEXMGkGA1UdIwRiMGCAFB0Z7tCVFjb1cjcdpDVEREIvmoEXoUWk
QzBBMQswCQYDVQQGEwJGUjEPMA0GA1UECBMGQ2VudHJlMQ4wDAYDVQQKEwVSZXpv
MjERMA8GA1UEAxMIVHJ1c3QgVXOCAQAwDAYDVR0TBAUwAwEB/zANBgkqhkiG9w0B
AQUFAAOBgQB6PiPqPhS3B7ylYT+Qch5K3hDBckS4VCxx1tsi9ruRnN2OiHUKD6dZ
1rMMoQrc5fmHMRCLLoSJwN9URZk5xN1RXvMFbZG1qR5SHqz3jvGOQw85+zPolOjz
i5iAAYeLY6loHMBQQ8/NN0HD5CbquQ/ymJQLP65mbdWCjRiVwEcExQ==
-----END CERTIFICATE-----
